target datalayout = "e-m:e-p270:32:32-p271:32:32-p272:64:64-i64:64-i128:128-f80:128-n8:16:32:64-S128"
target triple = "x86_64-pc-linux-gnu"

%"class.cv::Mat" = type { i32, i32, i32, i32, ptr, ptr, ptr, ptr, ptr, ptr, %"struct.cv::MatSize", %"struct.cv::MatStep" }
%"struct.cv::MatSize" = type { ptr }
%"struct.cv::MatStep" = type { ptr, [2 x i64] }
%"class.cv::Range" = type { i32, i32 }
%class.anon.0 = type { ptr, ptr, ptr, ptr, ptr }

; Function Attrs: alwaysinline mustprogress nounwind uwtable
define internal noundef i32 @_ZL14_mm_cvtsd_si32Dv2_d(<2 x double> noundef %0) #12 {
  %2 = alloca <2 x double>, align 16
  store <2 x double> %0, ptr %2, align 16, !tbaa !45
  %3 = load <2 x double>, ptr %2, align 16, !tbaa !45
  %4 = call i32 @llvm.x86.sse2.cvtsd2si(<2 x double> %3)
  ret i32 %4
}

; Function Attrs: alwaysinline mustprogress nounwind uwtable
define internal noundef <2 x double> @_ZL10_mm_set_sdd(double noundef %0) #12 {
  %2 = alloca double, align 8
  %3 = alloca <2 x double>, align 16
  store double %0, ptr %2, align 8, !tbaa !14
  %4 = load double, ptr %2, align 8, !tbaa !14
  %5 = insertelement <2 x double> poison, double %4, i32 0
  %6 = insertelement <2 x double> %5, double 0.000000e+00, i32 1
  store <2 x double> %6, ptr %3, align 16, !tbaa !45
  %7 = load <2 x double>, ptr %3, align 16, !tbaa !45
  ret <2 x double> %7
}

; Function Attrs: inlinehint mustprogress nounwind uwtable
define internal noundef zeroext i8 @_ZN2cvL13saturate_castIhEET_i(i32 noundef %0) #9 {
  %2 = alloca i32, align 4
  store i32 %0, ptr %2, align 4, !tbaa !4
  %3 = load i32, ptr %2, align 4, !tbaa !4
  %4 = icmp ule i32 %3, 255
  br i1 %4, label %5, label %7

5:                                                ; preds = %1
  %6 = load i32, ptr %2, align 4, !tbaa !4
  br label %11

7:                                                ; preds = %1
  %8 = load i32, ptr %2, align 4, !tbaa !4
  %9 = icmp sgt i32 %8, 0
  %10 = select i1 %9, i32 255, i32 0
  br label %11

11:                                               ; preds = %7, %5
  %12 = phi i32 [ %6, %5 ], [ %10, %7 ]
  %13 = trunc i32 %12 to i8
  ret i8 %13
}

; Function Attrs: inlinehint mustprogress uwtable
define internal noundef i32 @_ZL7cvRoundd(double noundef %0) #11 {
  %2 = alloca double, align 8
  %3 = alloca <2 x double>, align 16
  store double %0, ptr %2, align 8, !tbaa !14
  call void @llvm.lifetime.start.p0(i64 16, ptr %3) #3
  %4 = load double, ptr %2, align 8, !tbaa !14
  %5 = call noundef <2 x double> @_ZL10_mm_set_sdd(double noundef %4)
  store <2 x double> %5, ptr %3, align 16, !tbaa !45
  %6 = load <2 x double>, ptr %3, align 16, !tbaa !45
  %7 = call noundef i32 @_ZL14_mm_cvtsd_si32Dv2_d(<2 x double> noundef %6)
  call void @llvm.lifetime.end.p0(i64 16, ptr %3) #3
  ret i32 %7
}

; Function Attrs: inlinehint mustprogress uwtable
define internal noundef zeroext i8 @_ZN2cvL13saturate_castIhEET_d(double noundef %0) #8 {
  %2 = alloca double, align 8
  %3 = alloca i32, align 4
  store double %0, ptr %2, align 8, !tbaa !14
  call void @llvm.lifetime.start.p0(i64 4, ptr %3) #3
  %4 = load double, ptr %2, align 8, !tbaa !14
  %5 = call noundef i32 @_ZL7cvRoundd(double noundef %4)
  store i32 %5, ptr %3, align 4, !tbaa !4
  %6 = load i32, ptr %3, align 4, !tbaa !4
  %7 = call noundef zeroext i8 @_ZN2cvL13saturate_castIhEET_i(i32 noundef %6)
  call void @llvm.lifetime.end.p0(i64 4, ptr %3) #3
  ret i8 %7
}

; Function Attrs: inlinehint mustprogress nounwind uwtable
define linkonce_odr hidden noundef ptr @_ZN2cv3Mat3ptrIdEEPT_i(ptr noundef nonnull align 8 dereferenceable(96) %0, i32 noundef %1) #9 comdat align 2 {
  %3 = alloca ptr, align 8
  %4 = alloca i32, align 4
  store ptr %0, ptr %3, align 8, !tbaa !27
  store i32 %1, ptr %4, align 4, !tbaa !4
  %5 = load ptr, ptr %3, align 8
  %6 = getelementptr inbounds nuw %"class.cv::Mat", ptr %5, i32 0, i32 4
  %7 = load ptr, ptr %6, align 8, !tbaa !65
  %8 = getelementptr inbounds nuw %"class.cv::Mat", ptr %5, i32 0, i32 11
  %9 = getelementptr inbounds nuw %"struct.cv::MatStep", ptr %8, i32 0, i32 0
  %10 = load ptr, ptr %9, align 8, !tbaa !66
  %11 = getelementptr inbounds i64, ptr %10, i64 0
  %12 = load i64, ptr %11, align 8, !tbaa !67
  %13 = load i32, ptr %4, align 4, !tbaa !4
  %14 = sext i32 %13 to i64
  %15 = mul i64 %12, %14
  %16 = getelementptr inbounds nuw i8, ptr %7, i64 %15
  ret ptr %16
}

; Function Attrs: inlinehint mustprogress nounwind uwtable
define linkonce_odr hidden noundef ptr @_ZN2cv3Mat3ptrEi(ptr noundef nonnull align 8 dereferenceable(96) %0, i32 noundef %1) #9 comdat align 2 {
  %3 = alloca ptr, align 8
  %4 = alloca i32, align 4
  store ptr %0, ptr %3, align 8, !tbaa !27
  store i32 %1, ptr %4, align 4, !tbaa !4
  %5 = load ptr, ptr %3, align 8
  %6 = getelementptr inbounds nuw %"class.cv::Mat", ptr %5, i32 0, i32 4
  %7 = load ptr, ptr %6, align 8, !tbaa !65
  %8 = getelementptr inbounds nuw %"class.cv::Mat", ptr %5, i32 0, i32 11
  %9 = getelementptr inbounds nuw %"struct.cv::MatStep", ptr %8, i32 0, i32 0
  %10 = load ptr, ptr %9, align 8, !tbaa !66
  %11 = getelementptr inbounds i64, ptr %10, i64 0
  %12 = load i64, ptr %11, align 8, !tbaa !67
  %13 = load i32, ptr %4, align 4, !tbaa !4
  %14 = sext i32 %13 to i64
  %15 = mul i64 %12, %14
  %16 = getelementptr inbounds nuw i8, ptr %7, i64 %15
  ret ptr %16
}

; Function Attrs: inlinehint mustprogress uwtable
define internal void @"_ZZN12_GLOBAL__N_123conv_parallel_row_splitEN2cv3MatERS1_S1_ENK3$_0clERKNS0_5RangeE"(ptr noundef nonnull align 8 dereferenceable(40) %0, ptr noundef nonnull align 4 dereferenceable(8) %1) #8 align 2 {
  %3 = alloca ptr, align 8
  %4 = alloca ptr, align 8
  %5 = alloca i32, align 4
  %6 = alloca i32, align 4
  %7 = alloca ptr, align 8
  %8 = alloca i32, align 4
  %9 = alloca double, align 8
  %10 = alloca i32, align 4
  %11 = alloca ptr, align 8
  %12 = alloca i32, align 4
  store ptr %0, ptr %3, align 8, !tbaa !24
  store ptr %1, ptr %4, align 8, !tbaa !73
  %13 = load ptr, ptr %3, align 8
  call void @llvm.lifetime.start.p0(i64 4, ptr %5) #3
  %14 = load ptr, ptr %4, align 8, !tbaa !73
  %15 = getelementptr inbounds nuw %"class.cv::Range", ptr %14, i32 0, i32 0
  %16 = load i32, ptr %15, align 4, !tbaa !77
  store i32 %16, ptr %5, align 4, !tbaa !4
  br label %17

17:                                               ; preds = %120, %2
  %18 = load i32, ptr %5, align 4, !tbaa !4
  %19 = load ptr, ptr %4, align 8, !tbaa !73
  %20 = getelementptr inbounds nuw %"class.cv::Range", ptr %19, i32 0, i32 1
  %21 = load i32, ptr %20, align 4, !tbaa !79
  %22 = icmp slt i32 %18, %21
  br i1 %22, label %24, label %23

23:                                               ; preds = %17
  store i32 2, ptr %6, align 4
  call void @llvm.lifetime.end.p0(i64 4, ptr %5) #3
  br label %123

24:                                               ; preds = %17
  call void @llvm.lifetime.start.p0(i64 8, ptr %7) #3
  %25 = getelementptr inbounds nuw %class.anon.0, ptr %13, i32 0, i32 0
  %26 = load ptr, ptr %25, align 8, !tbaa !107
  %27 = load i32, ptr %5, align 4, !tbaa !4
  %28 = call noundef ptr @_ZN2cv3Mat3ptrEi(ptr noundef nonnull align 8 dereferenceable(96) %26, i32 noundef %27)
  store ptr %28, ptr %7, align 8, !tbaa !12
  call void @llvm.lifetime.start.p0(i64 4, ptr %8) #3
  store i32 0, ptr %8, align 4, !tbaa !4
  br label %29

29:                                               ; preds = %116, %24
  %30 = load i32, ptr %8, align 4, !tbaa !4
  %31 = getelementptr inbounds nuw %class.anon.0, ptr %13, i32 0, i32 1
  %32 = load ptr, ptr %31, align 8, !tbaa !109
  %33 = load i32, ptr %32, align 4, !tbaa !4
  %34 = icmp slt i32 %30, %33
  br i1 %34, label %36, label %35

35:                                               ; preds = %29
  store i32 5, ptr %6, align 4
  call void @llvm.lifetime.end.p0(i64 4, ptr %8) #3
  br label %119

36:                                               ; preds = %29
  call void @llvm.lifetime.start.p0(i64 8, ptr %9) #3
  store double 0.000000e+00, ptr %9, align 8, !tbaa !14
  call void @llvm.lifetime.start.p0(i64 4, ptr %10) #3
  %37 = getelementptr inbounds nuw %class.anon.0, ptr %13, i32 0, i32 2
  %38 = load ptr, ptr %37, align 8, !tbaa !110
  %39 = load i32, ptr %38, align 4, !tbaa !4
  %40 = sub nsw i32 0, %39
  store i32 %40, ptr %10, align 4, !tbaa !4
  br label %41

41:                                               ; preds = %106, %36
  %42 = load i32, ptr %10, align 4, !tbaa !4
  %43 = getelementptr inbounds nuw %class.anon.0, ptr %13, i32 0, i32 2
  %44 = load ptr, ptr %43, align 8, !tbaa !110
  %45 = load i32, ptr %44, align 4, !tbaa !4
  %46 = icmp sle i32 %42, %45
  br i1 %46, label %48, label %47

47:                                               ; preds = %41
  store i32 8, ptr %6, align 4
  call void @llvm.lifetime.end.p0(i64 4, ptr %10) #3
  br label %109

48:                                               ; preds = %41
  call void @llvm.lifetime.start.p0(i64 8, ptr %11) #3
  %49 = getelementptr inbounds nuw %class.anon.0, ptr %13, i32 0, i32 3
  %50 = load ptr, ptr %49, align 8, !tbaa !111
  %51 = load i32, ptr %5, align 4, !tbaa !4
  %52 = getelementptr inbounds nuw %class.anon.0, ptr %13, i32 0, i32 2
  %53 = load ptr, ptr %52, align 8, !tbaa !110
  %54 = load i32, ptr %53, align 4, !tbaa !4
  %55 = add nsw i32 %51, %54
  %56 = load i32, ptr %10, align 4, !tbaa !4
  %57 = add nsw i32 %55, %56
  %58 = call noundef ptr @_ZN2cv3Mat3ptrEi(ptr noundef nonnull align 8 dereferenceable(96) %50, i32 noundef %57)
  store ptr %58, ptr %11, align 8, !tbaa !12
  call void @llvm.lifetime.start.p0(i64 4, ptr %12) #3
  %59 = getelementptr inbounds nuw %class.anon.0, ptr %13, i32 0, i32 2
  %60 = load ptr, ptr %59, align 8, !tbaa !110
  %61 = load i32, ptr %60, align 4, !tbaa !4
  %62 = sub nsw i32 0, %61
  store i32 %62, ptr %12, align 4, !tbaa !4
  br label %63

63:                                               ; preds = %102, %48
  %64 = load i32, ptr %12, align 4, !tbaa !4
  %65 = getelementptr inbounds nuw %class.anon.0, ptr %13, i32 0, i32 2
  %66 = load ptr, ptr %65, align 8, !tbaa !110
  %67 = load i32, ptr %66, align 4, !tbaa !4
  %68 = icmp sle i32 %64, %67
  br i1 %68, label %70, label %69

69:                                               ; preds = %63
  store i32 11, ptr %6, align 4
  call void @llvm.lifetime.end.p0(i64 4, ptr %12) #3
  br label %105

70:                                               ; preds = %63
  %71 = getelementptr inbounds nuw %class.anon.0, ptr %13, i32 0, i32 4
  %72 = load ptr, ptr %71, align 8, !tbaa !112
  %73 = load i32, ptr %10, align 4, !tbaa !4
  %74 = getelementptr inbounds nuw %class.anon.0, ptr %13, i32 0, i32 2
  %75 = load ptr, ptr %74, align 8, !tbaa !110
  %76 = load i32, ptr %75, align 4, !tbaa !4
  %77 = add nsw i32 %73, %76
  %78 = call noundef ptr @_ZN2cv3Mat3ptrIdEEPT_i(ptr noundef nonnull align 8 dereferenceable(96) %72, i32 noundef %77)
  %79 = load i32, ptr %12, align 4, !tbaa !4
  %80 = getelementptr inbounds nuw %class.anon.0, ptr %13, i32 0, i32 2
  %81 = load ptr, ptr %80, align 8, !tbaa !110
  %82 = load i32, ptr %81, align 4, !tbaa !4
  %83 = add nsw i32 %79, %82
  %84 = sext i32 %83 to i64
  %85 = getelementptr inbounds double, ptr %78, i64 %84
  %86 = load double, ptr %85, align 8, !tbaa !14
  %87 = load ptr, ptr %11, align 8, !tbaa !12
  %88 = load i32, ptr %8, align 4, !tbaa !4
  %89 = getelementptr inbounds nuw %class.anon.0, ptr %13, i32 0, i32 2
  %90 = load ptr, ptr %89, align 8, !tbaa !110
  %91 = load i32, ptr %90, align 4, !tbaa !4
  %92 = add nsw i32 %88, %91
  %93 = load i32, ptr %12, align 4, !tbaa !4
  %94 = add nsw i32 %92, %93
  %95 = sext i32 %94 to i64
  %96 = getelementptr inbounds i8, ptr %87, i64 %95
  %97 = load i8, ptr %96, align 1, !tbaa !45
  %98 = zext i8 %97 to i32
  %99 = sitofp i32 %98 to double
  %100 = load double, ptr %9, align 8, !tbaa !14
  %101 = call double @llvm.fmuladd.f64(double %86, double %99, double %100)
  store double %101, ptr %9, align 8, !tbaa !14
  br label %102

102:                                              ; preds = %70
  %103 = load i32, ptr %12, align 4, !tbaa !4
  %104 = add nsw i32 %103, 1
  store i32 %104, ptr %12, align 4, !tbaa !4
  br label %63, !llvm.loop !113

105:                                              ; preds = %69
  call void @llvm.lifetime.end.p0(i64 8, ptr %11) #3
  br label %106

106:                                              ; preds = %105
  %107 = load i32, ptr %10, align 4, !tbaa !4
  %108 = add nsw i32 %107, 1
  store i32 %108, ptr %10, align 4, !tbaa !4
  br label %41, !llvm.loop !114

109:                                              ; preds = %47
  %110 = load double, ptr %9, align 8, !tbaa !14
  %111 = call noundef zeroext i8 @_ZN2cvL13saturate_castIhEET_d(double noundef %110)
  %112 = load ptr, ptr %7, align 8, !tbaa !12
  %113 = load i32, ptr %8, align 4, !tbaa !4
  %114 = sext i32 %113 to i64
  %115 = getelementptr inbounds i8, ptr %112, i64 %114
  store i8 %111, ptr %115, align 1, !tbaa !45
  call void @llvm.lifetime.end.p0(i64 8, ptr %9) #3
  br label %116

116:                                              ; preds = %109
  %117 = load i32, ptr %8, align 4, !tbaa !4
  %118 = add nsw i32 %117, 1
  store i32 %118, ptr %8, align 4, !tbaa !4
  br label %29, !llvm.loop !115

119:                                              ; preds = %35
  call void @llvm.lifetime.end.p0(i64 8, ptr %7) #3
  br label %120

120:                                              ; preds = %119
  %121 = load i32, ptr %5, align 4, !tbaa !4
  %122 = add nsw i32 %121, 1
  store i32 %122, ptr %5, align 4, !tbaa !4
  br label %17, !llvm.loop !116

123:                                              ; preds = %23
  ret void
}

; Function Attrs: mustprogress nounwind uwtable
define linkonce_odr hidden noundef ptr @_ZNKSt9_Any_data9_M_accessEv(ptr noundef nonnull align 8 dereferenceable(16) %0) #7 comdat align 2 {
  %2 = alloca ptr, align 8
  store ptr %0, ptr %2, align 8, !tbaa !90
  %3 = load ptr, ptr %2, align 8
  %4 = getelementptr inbounds [16 x i8], ptr %3, i64 0, i64 0
  ret ptr %4
}

; Function Attrs: mustprogress uwtable
define internal void @"_ZSt13__invoke_implIvRZN12_GLOBAL__N_123conv_parallel_row_splitEN2cv3MatERS2_S2_E3$_0JRKNS1_5RangeEEET_St14__invoke_otherOT0_DpOT1_"(ptr noundef nonnull align 8 dereferenceable(40) %0, ptr noundef nonnull align 4 dereferenceable(8) %1) #5 {
  %3 = alloca ptr, align 8
  %4 = alloca ptr, align 8
  store ptr %0, ptr %3, align 8, !tbaa !24
  store ptr %1, ptr %4, align 8, !tbaa !73
  %5 = load ptr, ptr %3, align 8, !tbaa !24
  %6 = load ptr, ptr %4, align 8, !tbaa !73
  call void @"_ZZN12_GLOBAL__N_123conv_parallel_row_splitEN2cv3MatERS1_S1_ENK3$_0clERKNS0_5RangeE"(ptr noundef nonnull align 8 dereferenceable(40) %5, ptr noundef nonnull align 4 dereferenceable(8) %6)
  ret void
}

; Function Attrs: mustprogress nounwind uwtable
define internal noundef nonnull align 8 dereferenceable(8) ptr @"_ZNKSt9_Any_data9_M_accessIPZN12_GLOBAL__N_123conv_parallel_row_splitEN2cv3MatERS3_S3_E3$_0EERKT_v"(ptr noundef nonnull align 8 dereferenceable(16) %0) #7 align 2 {
  %2 = alloca ptr, align 8
  store ptr %0, ptr %2, align 8, !tbaa !90
  %3 = load ptr, ptr %2, align 8
  %4 = call noundef ptr @_ZNKSt9_Any_data9_M_accessEv(ptr noundef nonnull align 8 dereferenceable(16) %3) #3
  ret ptr %4
}

; Function Attrs: mustprogress uwtable
define internal void @"_ZSt10__invoke_rIvRZN12_GLOBAL__N_123conv_parallel_row_splitEN2cv3MatERS2_S2_E3$_0JRKNS1_5RangeEEENSt9enable_ifIXsr6__and_ISt7is_voidIT_ESt14__is_invocableIT0_JDpT1_EEEE5valueESB_E4typeEOSE_DpOSF_"(ptr noundef nonnull align 8 dereferenceable(40) %0, ptr noundef nonnull align 4 dereferenceable(8) %1) #5 {
  %3 = alloca ptr, align 8
  %4 = alloca ptr, align 8
  store ptr %0, ptr %3, align 8, !tbaa !24
  store ptr %1, ptr %4, align 8, !tbaa !73
  %5 = load ptr, ptr %3, align 8, !tbaa !24
  %6 = load ptr, ptr %4, align 8, !tbaa !73
  call void @"_ZSt13__invoke_implIvRZN12_GLOBAL__N_123conv_parallel_row_splitEN2cv3MatERS2_S2_E3$_0JRKNS1_5RangeEEET_St14__invoke_otherOT0_DpOT1_"(ptr noundef nonnull align 8 dereferenceable(40) %5, ptr noundef nonnull align 4 dereferenceable(8) %6)
  ret void
}

; Function Attrs: mustprogress nounwind uwtable
define internal noundef ptr @"_ZNSt14_Function_base13_Base_managerIZN12_GLOBAL__N_123conv_parallel_row_splitEN2cv3MatERS3_S3_E3$_0E14_M_get_pointerERKSt9_Any_data"(ptr noundef nonnull align 8 dereferenceable(16) %0) #7 align 2 {
  %2 = alloca ptr, align 8
  store ptr %0, ptr %2, align 8, !tbaa !90
  %3 = load ptr, ptr %2, align 8, !tbaa !90
  %4 = call noundef nonnull align 8 dereferenceable(8) ptr @"_ZNKSt9_Any_data9_M_accessIPZN12_GLOBAL__N_123conv_parallel_row_splitEN2cv3MatERS3_S3_E3$_0EERKT_v"(ptr noundef nonnull align 8 dereferenceable(16) %3) #3
  %5 = load ptr, ptr %4, align 8, !tbaa !24
  ret ptr %5
}

; Function Attrs: mustprogress uwtable
define internal void @"_ZNSt17_Function_handlerIFvRKN2cv5RangeEEZN12_GLOBAL__N_123conv_parallel_row_splitENS0_3MatERS6_S6_E3$_0E9_M_invokeERKSt9_Any_dataS3_"(ptr noundef nonnull align 8 dereferenceable(16) %0, ptr noundef nonnull align 4 dereferenceable(8) %1) #5 align 2 {
  %3 = alloca ptr, align 8
  %4 = alloca ptr, align 8
  store ptr %0, ptr %3, align 8, !tbaa !90
  store ptr %1, ptr %4, align 8, !tbaa !73
  %5 = load ptr, ptr %3, align 8, !tbaa !90
  %6 = call noundef ptr @"_ZNSt14_Function_base13_Base_managerIZN12_GLOBAL__N_123conv_parallel_row_splitEN2cv3MatERS3_S3_E3$_0E14_M_get_pointerERKSt9_Any_data"(ptr noundef nonnull align 8 dereferenceable(16) %5) #3
  %7 = load ptr, ptr %4, align 8, !tbaa !73
  call void @"_ZSt10__invoke_rIvRZN12_GLOBAL__N_123conv_parallel_row_splitEN2cv3MatERS2_S2_E3$_0JRKNS1_5RangeEEENSt9enable_ifIXsr6__and_ISt7is_voidIT_ESt14__is_invocableIT0_JDpT1_EEEE5valueESB_E4typeEOSE_DpOSF_"(ptr noundef nonnull align 8 dereferenceable(40) %6, ptr noundef nonnull align 4 dereferenceable(8) %7)
  ret void
}