; Function Attrs: mustprogress nofree norecurse nosync nounwind memory(readwrite, inaccessiblemem: none) uwtable
define internal void @"_ZNSt17_Function_handlerIFvRKN2cv5RangeEEZN12_GLOBAL__N_123conv_parallel_row_splitENS0_3MatERS6_S6_E3$_0E9_M_invokeERKSt9_Any_dataS3_"(ptr noundef nonnull readonly align 8 captures(none) dereferenceable(16) %0, ptr noundef nonnull readonly align 4 captures(none) dereferenceable(8) %1) #15 align 2 {
  %.val = load ptr, ptr %0, align 8, !tbaa !86
  %3 = load i32, ptr %1, align 4, !tbaa !81
  %4 = getelementptr inbounds nuw i8, ptr %1, i64 4
  %5 = load i32, ptr %4, align 4, !tbaa !83
  %6 = icmp slt i32 %3, %5
  br i1 %6, label %.lr.ph45.i.i.i, label %"_ZSt10__invoke_rIvRZN12_GLOBAL__N_123conv_parallel_row_splitEN2cv3MatERS2_S2_E3$_0JRKNS1_5RangeEEENSt9enable_ifIXsr6__and_ISt7is_voidIT_ESt14__is_invocableIT0_JDpT1_EEEE5valueESB_E4typeEOSE_DpOSF_.exit"

.lr.ph45.i.i.i:                                   ; preds = %2
  %7 = getelementptr inbounds nuw i8, ptr %.val, i64 8
  %8 = getelementptr inbounds nuw i8, ptr %.val, i64 16
  %9 = getelementptr inbounds nuw i8, ptr %.val, i64 24
  %10 = getelementptr inbounds nuw i8, ptr %.val, i64 32
  %11 = load ptr, ptr %7, align 8, !tbaa !102
  %12 = load i32, ptr %11, align 4, !tbaa !80
  %13 = icmp sgt i32 %12, 0
  br i1 %13, label %.lr.ph45.split.preheader.i.i.i, label %"_ZSt10__invoke_rIvRZN12_GLOBAL__N_123conv_parallel_row_splitEN2cv3MatERS2_S2_E3$_0JRKNS1_5RangeEEENSt9enable_ifIXsr6__and_ISt7is_voidIT_ESt14__is_invocableIT0_JDpT1_EEEE5valueESB_E4typeEOSE_DpOSF_.exit"

.lr.ph45.split.preheader.i.i.i:                   ; preds = %.lr.ph45.i.i.i
  %14 = sext i32 %3 to i64
  br label %.lr.ph45.split.i.i.i

.lr.ph45.split.i.i.i:                             ; preds = %._crit_edge42.i.i.i, %.lr.ph45.split.preheader.i.i.i
  %15 = phi i32 [ %5, %.lr.ph45.split.preheader.i.i.i ], [ %26, %._crit_edge42.i.i.i ]
  %16 = phi i32 [ %12, %.lr.ph45.split.preheader.i.i.i ], [ %27, %._crit_edge42.i.i.i ]
  %indvars.iv57.i.i.i = phi i64 [ %14, %.lr.ph45.split.preheader.i.i.i ], [ %indvars.iv.next58.i.i.i, %._crit_edge42.i.i.i ]
  %17 = load ptr, ptr %.val, align 8, !tbaa !104
  %18 = getelementptr inbounds nuw i8, ptr %17, i64 16
  %19 = load ptr, ptr %18, align 8, !tbaa !73
  %20 = getelementptr inbounds nuw i8, ptr %17, i64 72
  %21 = load ptr, ptr %20, align 8, !tbaa !74
  %22 = load i64, ptr %21, align 8, !tbaa !39
  %23 = mul i64 %22, %indvars.iv57.i.i.i
  %24 = getelementptr inbounds nuw i8, ptr %19, i64 %23
  %25 = icmp sgt i32 %16, 0
  br i1 %25, label %.lr.ph41.i.i.i, label %._crit_edge42.i.i.i

._crit_edge42.loopexit.i.i.i:                     ; preds = %._crit_edge37.split.i.i.i
  %.pre.i.i.i = load i32, ptr %4, align 4, !tbaa !83
  br label %._crit_edge42.i.i.i

._crit_edge42.i.i.i:                              ; preds = %._crit_edge42.loopexit.i.i.i, %.lr.ph45.split.i.i.i
  %26 = phi i32 [ %.pre.i.i.i, %._crit_edge42.loopexit.i.i.i ], [ %15, %.lr.ph45.split.i.i.i ]
  %27 = phi i32 [ %59, %._crit_edge42.loopexit.i.i.i ], [ %16, %.lr.ph45.split.i.i.i ]
  %indvars.iv.next58.i.i.i = add nsw i64 %indvars.iv57.i.i.i, 1
  %28 = sext i32 %26 to i64
  %29 = icmp slt i64 %indvars.iv.next58.i.i.i, %28
  br i1 %29, label %.lr.ph45.split.i.i.i, label %"_ZSt10__invoke_rIvRZN12_GLOBAL__N_123conv_parallel_row_splitEN2cv3MatERS2_S2_E3$_0JRKNS1_5RangeEEENSt9enable_ifIXsr6__and_ISt7is_voidIT_ESt14__is_invocableIT0_JDpT1_EEEE5valueESB_E4typeEOSE_DpOSF_.exit", !llvm.loop !105

.lr.ph41.i.i.i:                                   ; preds = %.lr.ph45.split.i.i.i, %._crit_edge37.split.i.i.i
  %indvars.iv54.i.i.i = phi i64 [ %indvars.iv.next55.i.i.i, %._crit_edge37.split.i.i.i ], [ 0, %.lr.ph45.split.i.i.i ]
  %30 = load ptr, ptr %8, align 8, !tbaa !107
  %31 = load i32, ptr %30, align 4, !tbaa !80
  %.not32.i.i.i = icmp slt i32 %31, 0
  br i1 %.not32.i.i.i, label %._crit_edge37.split.i.i.i, label %.lr.ph36.i.i.i

.lr.ph36.i.i.i:                                   ; preds = %.lr.ph41.i.i.i
  %32 = sub nsw i32 0, %31
  %33 = load ptr, ptr %9, align 8, !tbaa !108
  %34 = zext nneg i32 %31 to i64
  %35 = add nsw i64 %indvars.iv57.i.i.i, %34
  %36 = getelementptr inbounds nuw i8, ptr %33, i64 16
  %37 = load ptr, ptr %36, align 8, !tbaa !73
  %38 = getelementptr inbounds nuw i8, ptr %33, i64 72
  %39 = load ptr, ptr %38, align 8, !tbaa !74
  %40 = load i64, ptr %39, align 8, !tbaa !39
  %41 = load ptr, ptr %10, align 8
  %42 = getelementptr inbounds nuw i8, ptr %41, i64 16
  %43 = getelementptr inbounds nuw i8, ptr %41, i64 72
  %44 = trunc nuw nsw i64 %indvars.iv54.i.i.i to i32
  %45 = add nuw nsw i32 %31, %44
  %46 = load ptr, ptr %42, align 8, !tbaa !73
  %47 = load ptr, ptr %43, align 8, !tbaa !74
  %48 = load i64, ptr %47, align 8, !tbaa !39
  %49 = sext i32 %32 to i64
  %50 = sext i32 %45 to i64
  %51 = add nuw i32 %31, 1
  %invariant.gep63.i.i.i = getelementptr double, ptr %46, i64 %34
  %invariant.gep.i.i.i = getelementptr i8, ptr %37, i64 %50
  br label %.lr.ph.i.i.i

._crit_edge37.split.i.i.i:                        ; preds = %._crit_edge.i.i.i, %.lr.ph41.i.i.i
  %.024.lcssa.i.i.i = phi double [ 0.000000e+00, %.lr.ph41.i.i.i ], [ %70, %._crit_edge.i.i.i ]
  %52 = insertelement <2 x double> poison, double %.024.lcssa.i.i.i, i64 0
  %53 = tail call noundef i32 @llvm.x86.sse2.cvtsd2si(<2 x double> %52)
  %54 = tail call i32 @llvm.smax.i32(i32 %53, i32 0)
  %55 = tail call i32 @llvm.umin.i32(i32 %54, i32 255)
  %56 = trunc nuw i32 %55 to i8
  %57 = getelementptr inbounds nuw i8, ptr %24, i64 %indvars.iv54.i.i.i
  store i8 %56, ptr %57, align 1, !tbaa !35
  %indvars.iv.next55.i.i.i = add nuw nsw i64 %indvars.iv54.i.i.i, 1
  %58 = load ptr, ptr %7, align 8, !tbaa !102
  %59 = load i32, ptr %58, align 4, !tbaa !80
  %60 = sext i32 %59 to i64
  %61 = icmp slt i64 %indvars.iv.next55.i.i.i, %60
  br i1 %61, label %.lr.ph41.i.i.i, label %._crit_edge42.loopexit.i.i.i, !llvm.loop !109

.lr.ph.i.i.i:                                     ; preds = %._crit_edge.i.i.i, %.lr.ph36.i.i.i
  %indvars.iv49.i.i.i = phi i64 [ %49, %.lr.ph36.i.i.i ], [ %indvars.iv.next50.i.i.i, %._crit_edge.i.i.i ]
  %.02433.i.i.i = phi double [ 0.000000e+00, %.lr.ph36.i.i.i ], [ %70, %._crit_edge.i.i.i ]
  %62 = add nsw i64 %35, %indvars.iv49.i.i.i
  %63 = mul i64 %62, %40
  %64 = add nsw i64 %indvars.iv49.i.i.i, %34
  %65 = mul i64 %64, %48
  %gep64.i.i.i = getelementptr i8, ptr %invariant.gep63.i.i.i, i64 %65
  %gep65.i.i.i = getelementptr i8, ptr %invariant.gep.i.i.i, i64 %63
  br label %66

._crit_edge.i.i.i:                                ; preds = %66
  %indvars.iv.next50.i.i.i = add nsw i64 %indvars.iv49.i.i.i, 1
  %lftr.wideiv52.i.i.i = trunc i64 %indvars.iv.next50.i.i.i to i32
  %exitcond53.not.i.i.i = icmp eq i32 %51, %lftr.wideiv52.i.i.i
  br i1 %exitcond53.not.i.i.i, label %._crit_edge37.split.i.i.i, label %.lr.ph.i.i.i, !llvm.loop !110

66:                                               ; preds = %66, %.lr.ph.i.i.i
  %indvars.iv.i.i.i = phi i64 [ %49, %.lr.ph.i.i.i ], [ %indvars.iv.next.i.i.i, %66 ]
  %.130.i.i.i = phi double [ %.02433.i.i.i, %.lr.ph.i.i.i ], [ %70, %66 ]
  %gep.i.i.i = getelementptr double, ptr %gep64.i.i.i, i64 %indvars.iv.i.i.i
  %67 = load double, ptr %gep.i.i.i, align 8, !tbaa !55
  %gep62.i.i.i = getelementptr i8, ptr %gep65.i.i.i, i64 %indvars.iv.i.i.i
  %68 = load i8, ptr %gep62.i.i.i, align 1, !tbaa !35
  %69 = uitofp i8 %68 to double
  %70 = tail call double @llvm.fmuladd.f64(double %67, double %69, double %.130.i.i.i)
  %indvars.iv.next.i.i.i = add nsw i64 %indvars.iv.i.i.i, 1
  %lftr.wideiv.i.i.i = trunc i64 %indvars.iv.next.i.i.i to i32
  %exitcond.not.i.i.i = icmp eq i32 %51, %lftr.wideiv.i.i.i
  br i1 %exitcond.not.i.i.i, label %._crit_edge.i.i.i, label %66, !llvm.loop !111

"_ZSt10__invoke_rIvRZN12_GLOBAL__N_123conv_parallel_row_splitEN2cv3MatERS2_S2_E3$_0JRKNS1_5RangeEEENSt9enable_ifIXsr6__and_ISt7is_voidIT_ESt14__is_invocableIT0_JDpT1_EEEE5valueESB_E4typeEOSE_DpOSF_.exit": ; preds = %._crit_edge42.i.i.i, %2, %.lr.ph45.i.i.i
  ret void
}